target datalayout = "e-m:e-p270:32:32-p271:32:32-p272:64:64-i64:64-i128:128-f80:128-n8:16:32:64-S128"
target triple = "x86_64-pc-linux-gnu"

%struct.nghttp2_stream = type { %struct.nghttp2_pq_entry, %struct.nghttp2_pq, i64, i64, i64, i64, i64, i64, ptr, ptr, ptr, ptr, ptr, ptr, ptr, ptr, i64, i32, i32, i32, i32, i32, i32, i32, i32, i32, i32, i16, i32, i8, i8, i8, i8, i8, i8 }
%struct.nghttp2_pq_entry = type { i64 }
%struct.nghttp2_pq = type { ptr, ptr, i64, i64, ptr }

; Function Attrs: nounwind uwtable
define dso_local i32 @nghttp2_http_on_remote_end_stream(ptr noundef %0) #0 {
  %2 = alloca i32, align 4
  %3 = alloca ptr, align 8
  store ptr %0, ptr %3, align 8, !tbaa !9
  %4 = load ptr, ptr %3, align 8, !tbaa !9
  %5 = getelementptr inbounds nuw %struct.nghttp2_stream, ptr %4, i32 0, i32 28
  %6 = load i32, ptr %5, align 4, !tbaa !26
  %7 = and i32 %6, 16384
  %8 = icmp ne i32 %7, 0
  br i1 %8, label %9, label %10

9:                                                ; preds = %1
  store i32 -1, ptr %2, align 4
  br label %25

10:                                               ; preds = %1
  %11 = load ptr, ptr %3, align 8, !tbaa !9
  %12 = getelementptr inbounds nuw %struct.nghttp2_stream, ptr %11, i32 0, i32 2
  %13 = load i64, ptr %12, align 8, !tbaa !61
  %14 = icmp ne i64 %13, -1
  br i1 %14, label %15, label %24

15:                                               ; preds = %10
  %16 = load ptr, ptr %3, align 8, !tbaa !9
  %17 = getelementptr inbounds nuw %struct.nghttp2_stream, ptr %16, i32 0, i32 2
  %18 = load i64, ptr %17, align 8, !tbaa !61
  %19 = load ptr, ptr %3, align 8, !tbaa !9
  %20 = getelementptr inbounds nuw %struct.nghttp2_stream, ptr %19, i32 0, i32 3
  %21 = load i64, ptr %20, align 8, !tbaa !64
  %22 = icmp ne i64 %18, %21
  br i1 %22, label %23, label %24

23:                                               ; preds = %15
  store i32 -1, ptr %2, align 4
  br label %25

24:                                               ; preds = %15, %10
  store i32 0, ptr %2, align 4
  br label %25

25:                                               ; preds = %24, %23, %9
  %26 = load i32, ptr %2, align 4
  ret i32 %26
}