; Function Attrs: mustprogress nofree norecurse nosync nounwind willreturn memory(argmem: read) uwtable
define dso_local range(i32 -1, 1) i32 @nghttp2_http_on_remote_end_stream(ptr noundef readonly captures(none) %0) local_unnamed_addr #4 {
  %2 = getelementptr inbounds nuw i8, ptr %0, i64 212
  %3 = load i32, ptr %2, align 4, !tbaa !19
  %4 = and i32 %3, 16384
  %.not = icmp eq i32 %4, 0
  br i1 %.not, label %5, label %12

5:                                                ; preds = %1
  %6 = getelementptr inbounds nuw i8, ptr %0, i64 48
  %7 = load i64, ptr %6, align 8, !tbaa !55
  %.not5 = icmp eq i64 %7, -1
  br i1 %.not5, label %11, label %8

8:                                                ; preds = %5
  %9 = getelementptr inbounds nuw i8, ptr %0, i64 56
  %10 = load i64, ptr %9, align 8, !tbaa !59
  %.not6 = icmp eq i64 %7, %10
  br i1 %.not6, label %11, label %12

11:                                               ; preds = %8, %5
  br label %12

12:                                               ; preds = %8, %1, %11
  %.0 = phi i32 [ 0, %11 ], [ -1, %1 ], [ -1, %8 ]
  ret i32 %.0
}